; Function Attrs: mustprogress nofree norecurse nosync nounwind willreturn memory(argmem: write) uwtable
define internal noundef zeroext i1 @_ZNSt17_Function_handlerIFvmEZN4node12_GLOBAL__N_125IdempotentDataQueueReader4PullESt8functionIFviPKNS1_9DataQueue3VecEmS4_IS0_EEEiPS6_mmEUlmE_E10_M_managerERSt9_Any_dataRKSF_St18_Manager_operation(ptr nocapture noundef nonnull writeonly align 8 dereferenceable(16) %__dest, ptr noundef nonnull align 8 dereferenceable(16) %__source, i32 noundef %__op) #15 align 2 {
entry:
  switch i32 %__op, label %sw.epilog [
    i32 1, label %sw.epilog.sink.split
    i32 0, label %sw.bb.i
  ]

sw.bb.i:                                          ; preds = %entry
  br label %sw.epilog.sink.split

sw.epilog.sink.split:                             ; preds = %entry, %sw.bb.i
  %.sink = phi ptr [ null, %sw.bb.i ], [ %__source, %entry ]
  store ptr %.sink, ptr %__dest, align 8
  br label %sw.epilog

sw.epilog:                                        ; preds = %sw.epilog.sink.split, %entry
  ret i1 false
}